ARM GAS  C:\Users\phil4\AppData\Local\Temp\ccQeQu5e.s 			page 1


   1              		.cpu cortex-m4
   2              		.eabi_attribute 27, 1
   3              		.eabi_attribute 28, 1
   4              		.eabi_attribute 20, 1
   5              		.eabi_attribute 21, 1
   6              		.eabi_attribute 23, 3
   7              		.eabi_attribute 24, 1
   8              		.eabi_attribute 25, 1
   9              		.eabi_attribute 26, 1
  10              		.eabi_attribute 30, 2
  11              		.eabi_attribute 34, 1
  12              		.eabi_attribute 18, 4
  13              		.file	"main.c"
  14              		.text
  15              	.Ltext0:
  16              		.cfi_sections	.debug_frame
  17              		.section	.text.startup.main,"ax",%progbits
  18              		.align	1
  19              		.p2align 4,,15
  20              		.global	main
  21              		.syntax unified
  22              		.thumb
  23              		.thumb_func
  24              		.fpu fpv4-sp-d16
  25              		.type	main, %function
  26              	main:
  27              	.LFB295:
  28              		.file 1 "main.c"
  29              		.loc 1 57 0
  30              		.cfi_startproc
  31              		@ args = 0, pretend = 0, frame = 8
  32              		@ frame_needed = 0, uses_anonymous_args = 0
  33 0000 10B5     		push	{r4, lr}
  34              		.cfi_def_cfa_offset 8
  35              		.cfi_offset 4, -8
  36              		.cfi_offset 14, -4
  37 0002 1F4B     		ldr	r3, .L6
  38              	.LBB10:
  39              		.loc 1 99 0
  40 0004 1F4C     		ldr	r4, .L6+4
  41              	.LBE10:
  42              		.loc 1 57 0
  43 0006 1B68     		ldr	r3, [r3]
  44 0008 82B0     		sub	sp, sp, #8
  45              		.cfi_def_cfa_offset 16
  46              		.loc 1 57 0
  47 000a 0193     		str	r3, [sp, #4]
  48              		.loc 1 60 0
  49 000c FFF7FEFF 		bl	halInit
  50              	.LVL0:
  51              		.loc 1 61 0
  52 0010 FFF7FEFF 		bl	chSysInit
  53              	.LVL1:
  54              		.loc 1 62 0
  55 0014 FFF7FEFF 		bl	mpu_init
  56              	.LVL2:
  57              		.loc 1 64 0
ARM GAS  C:\Users\phil4\AppData\Local\Temp\ccQeQu5e.s 			page 2


  58 0018 FFF7FEFF 		bl	clear_leds
  59              	.LVL3:
  60              		.loc 1 65 0
  61 001c 0020     		movs	r0, #0
  62 001e FFF7FEFF 		bl	set_body_led
  63              	.LVL4:
  64              		.loc 1 66 0
  65 0022 0020     		movs	r0, #0
  66 0024 FFF7FEFF 		bl	set_front_led
  67              	.LVL5:
  68              	.LBB11:
  69              	.LBB12:
  70              		.loc 1 37 0
  71 0028 1749     		ldr	r1, .L6+8
  72 002a 1848     		ldr	r0, .L6+12
  73 002c FFF7FEFF 		bl	sdStart
  74              	.LVL6:
  75              	.LBE12:
  76              	.LBE11:
  77              		.loc 1 71 0
  78 0030 FFF7FEFF 		bl	usb_start
  79              	.LVL7:
  80              	.LBB13:
  81              	.LBB14:
  82              		.loc 1 51 0
  83 0034 1649     		ldr	r1, .L6+16
  84 0036 1748     		ldr	r0, .L6+20
  85 0038 FFF7FEFF 		bl	gptStart
  86              	.LVL8:
  87              		.loc 1 53 0
  88 003c 1548     		ldr	r0, .L6+20
  89 003e 4FF6FF71 		movw	r1, #65535
  90 0042 FFF7FEFF 		bl	gptStartContinuous
  91              	.LVL9:
  92              	.LBE14:
  93              	.LBE13:
  94              		.loc 1 75 0
  95 0046 FFF7FEFF 		bl	motors_init
  96              	.LVL10:
  97              		.loc 1 86 0
  98 004a 1348     		ldr	r0, .L6+24
  99 004c FFF7FEFF 		bl	mic_start
 100              	.LVL11:
 101              	.L2:
 102              	.LBB15:
 103              		.loc 1 94 0 discriminator 1
 104 0050 0520     		movs	r0, #5
 105 0052 FFF7FEFF 		bl	set_body_led
 106              	.LVL12:
 107              		.loc 1 95 0 discriminator 1
 108 0056 0520     		movs	r0, #5
 109 0058 FFF7FEFF 		bl	set_front_led
 110              	.LVL13:
 111              		.loc 1 96 0 discriminator 1
 112 005c FFF7FEFF 		bl	wait_send_to_computer
 113              	.LVL14:
 114              		.loc 1 99 0 discriminator 1
ARM GAS  C:\Users\phil4\AppData\Local\Temp\ccQeQu5e.s 			page 3


 115 0060 0420     		movs	r0, #4
 116 0062 FFF7FEFF 		bl	get_audio_buffer_ptr
 117              	.LVL15:
 118 0066 2146     		mov	r1, r4
 119 0068 4FF48062 		mov	r2, #1024
 120 006c FFF7FEFF 		bl	arm_copy_f32
 121              	.LVL16:
 122              		.loc 1 100 0 discriminator 1
 123 0070 4FF48062 		mov	r2, #1024
 124 0074 2146     		mov	r1, r4
 125 0076 0548     		ldr	r0, .L6+12
 126 0078 FFF7FEFF 		bl	SendFloatToComputer
 127              	.LVL17:
 128 007c E8E7     		b	.L2
 129              	.L7:
 130 007e 00BF     		.align	2
 131              	.L6:
 132 0080 00000000 		.word	__stack_chk_guard
 133 0084 00000000 		.word	send_tab.14942
 134 0088 00000000 		.word	.LANCHOR0
 135 008c 00000000 		.word	SD3
 136 0090 00000000 		.word	.LANCHOR1
 137 0094 00000000 		.word	GPTD12
 138 0098 00000000 		.word	processAudioData
 139              	.LBE15:
 140              		.cfi_endproc
 141              	.LFE295:
 142              		.size	main, .-main
 143              		.section	.text.__stack_chk_fail,"ax",%progbits
 144              		.align	1
 145              		.p2align 4,,15
 146              		.global	__stack_chk_fail
 147              		.syntax unified
 148              		.thumb
 149              		.thumb_func
 150              		.fpu fpv4-sp-d16
 151              		.type	__stack_chk_fail, %function
 152              	__stack_chk_fail:
 153              	.LFB296:
 154              		.loc 1 166 0
 155              		.cfi_startproc
 156              		@ args = 0, pretend = 0, frame = 8
 157              		@ frame_needed = 0, uses_anonymous_args = 0
 158 0000 00B5     		push	{lr}
 159              		.cfi_def_cfa_offset 4
 160              		.cfi_offset 14, -4
 161 0002 084B     		ldr	r3, .L13
 162 0004 83B0     		sub	sp, sp, #12
 163              		.cfi_def_cfa_offset 16
 164              		.loc 1 166 0
 165 0006 1A68     		ldr	r2, [r3]
 166 0008 0192     		str	r2, [sp, #4]
 167              		.loc 1 167 0
 168 000a 019A     		ldr	r2, [sp, #4]
 169 000c 1B68     		ldr	r3, [r3]
 170 000e 9A42     		cmp	r2, r3
 171 0010 05D1     		bne	.L12
ARM GAS  C:\Users\phil4\AppData\Local\Temp\ccQeQu5e.s 			page 4


 172 0012 0548     		ldr	r0, .L13+4
 173              		.loc 1 168 0
 174 0014 03B0     		add	sp, sp, #12
 175              		.cfi_remember_state
 176              		.cfi_def_cfa_offset 4
 177              		@ sp needed
 178 0016 5DF804EB 		ldr	lr, [sp], #4
 179              		.cfi_restore 14
 180              		.cfi_def_cfa_offset 0
 181              		.loc 1 167 0
 182 001a FFF7FEBF 		b	chSysHalt
 183              	.LVL18:
 184              	.L12:
 185              		.cfi_restore_state
 186 001e FFF7FEFF 		bl	__stack_chk_fail
 187              	.LVL19:
 188              	.L14:
 189 0022 00BF     		.align	2
 190              	.L13:
 191 0024 00000000 		.word	__stack_chk_guard
 192 0028 00000000 		.word	.LC0
 193              		.cfi_endproc
 194              	.LFE296:
 195              		.size	__stack_chk_fail, .-__stack_chk_fail
 196              		.global	__stack_chk_guard
 197              		.section	.bss.send_tab.14942,"aw",%nobits
 198              		.align	2
 199              		.type	send_tab.14942, %object
 200              		.size	send_tab.14942, 4096
 201              	send_tab.14942:
 202 0000 00000000 		.space	4096
 202      00000000 
 202      00000000 
 202      00000000 
 202      00000000 
 203              		.section	.data.__stack_chk_guard,"aw",%progbits
 204              		.align	2
 205              		.type	__stack_chk_guard, %object
 206              		.size	__stack_chk_guard, 4
 207              	__stack_chk_guard:
 208 0000 96E3DEE2 		.word	-488709226
 209              		.section	.data.ser_cfg.14934,"aw",%progbits
 210              		.align	2
 211              		.set	.LANCHOR0,. + 0
 212              		.type	ser_cfg.14934, %object
 213              		.size	ser_cfg.14934, 12
 214              	ser_cfg.14934:
 215 0000 00C20100 		.word	115200
 216 0004 0000     		.short	0
 217 0006 0000     		.short	0
 218 0008 0000     		.short	0
 219 000a 0000     		.space	2
 220              		.section	.rodata.__stack_chk_fail.str1.4,"aMS",%progbits,1
 221              		.align	2
 222              	.LC0:
 223 0000 53746163 		.ascii	"Stack smashing detected\000"
 223      6B20736D 
ARM GAS  C:\Users\phil4\AppData\Local\Temp\ccQeQu5e.s 			page 5


 223      61736869 
 223      6E672064 
 223      65746563 
 224              		.section	.rodata.gpt12cfg.14938,"a",%progbits
 225              		.align	2
 226              		.set	.LANCHOR1,. + 0
 227              		.type	gpt12cfg.14938, %object
 228              		.size	gpt12cfg.14938, 16
 229              	gpt12cfg.14938:
 230 0000 40420F00 		.word	1000000
 231 0004 00000000 		.word	0
 232 0008 00000000 		.word	0
 233 000c 00000000 		.word	0
 234              		.text
 235              	.Letext0:
 236              		.file 2 "c:\\users\\phil4\\onedrive\\bureau\\microinformatique_tp\\eclipse_e-puck2_win32_29_jan_20
 237              		.file 3 "c:\\users\\phil4\\onedrive\\bureau\\microinformatique_tp\\eclipse_e-puck2_win32_29_jan_20
 238              		.file 4 "c:\\users\\phil4\\onedrive\\bureau\\microinformatique_tp\\eclipse_e-puck2_win32_29_jan_20
 239              		.file 5 "c:\\users\\phil4\\onedrive\\bureau\\microinformatique_tp\\eclipse_e-puck2_win32_29_jan_20
 240              		.file 6 "c:\\users\\phil4\\onedrive\\bureau\\microinformatique_tp\\eclipse_e-puck2_win32_29_jan_20
 241              		.file 7 "c:\\users\\phil4\\onedrive\\bureau\\microinformatique_tp\\eclipse_e-puck2_win32_29_jan_20
 242              		.file 8 "c:\\users\\phil4\\onedrive\\bureau\\microinformatique_tp\\eclipse_e-puck2_win32_29_jan_20
 243              		.file 9 "../../lib/e-puck2_main-processor/ChibiOS//os/rt/ports/ARMCMx/compilers/GCC/chtypes.h"
 244              		.file 10 "../../lib/e-puck2_main-processor/ChibiOS//os/rt/include/chsystypes.h"
 245              		.file 11 "../../lib/e-puck2_main-processor/ChibiOS//os/rt/include/chschd.h"
 246              		.file 12 "../../lib/e-puck2_main-processor/ChibiOS//os/ext/CMSIS/include/core_cm4.h"
 247              		.file 13 "../../lib/e-puck2_main-processor/ChibiOS//os/ext/CMSIS/ST/system_stm32f4xx.h"
 248              		.file 14 "../../lib/e-puck2_main-processor/ChibiOS//os/ext/CMSIS/ST/stm32f407xx.h"
 249              		.file 15 "../../lib/e-puck2_main-processor/ChibiOS//os/rt/ports/ARMCMx/chcore.h"
 250              		.file 16 "../../lib/e-puck2_main-processor/ChibiOS//os/rt/ports/ARMCMx/chcore_v7m.h"
 251              		.file 17 "../../lib/e-puck2_main-processor/ChibiOS//os/rt/include/chdebug.h"
 252              		.file 18 "../../lib/e-puck2_main-processor/ChibiOS//os/rt/include/chtm.h"
 253              		.file 19 "../../lib/e-puck2_main-processor/ChibiOS//os/rt/include/chstats.h"
 254              		.file 20 "../../lib/e-puck2_main-processor/ChibiOS//os/rt/include/chsem.h"
 255              		.file 21 "../../lib/e-puck2_main-processor/ChibiOS//os/rt/include/chmtx.h"
 256              		.file 22 "../../lib/e-puck2_main-processor/ChibiOS//os/rt/include/chregistry.h"
 257              		.file 23 "../../lib/e-puck2_main-processor/ChibiOS//os/rt/include/chevents.h"
 258              		.file 24 "../../lib/e-puck2_main-processor/ChibiOS//os/rt/include/chqueues.h"
 259              		.file 25 "../../lib/e-puck2_main-processor/ChibiOS//os/rt/include/chstreams.h"
 260              		.file 26 "../../lib/e-puck2_main-processor/ChibiOS//os/hal/ports/STM32/STM32F4xx/stm32_dma.h"
 261              		.file 27 "../../lib/e-puck2_main-processor/ChibiOS//os/hal/include/hal_ioblock.h"
 262              		.file 28 "../../lib/e-puck2_main-processor/ChibiOS//os/hal/ports/STM32/LLD/GPIOv2/pal_lld.h"
 263              		.file 29 "../../lib/e-puck2_main-processor/ChibiOS//os/hal/include/adc.h"
 264              		.file 30 "../../lib/e-puck2_main-processor/ChibiOS//os/hal/ports/STM32/STM32F4xx/adc_lld.h"
 265              		.file 31 "../../lib/e-puck2_main-processor/ChibiOS//os/hal/include/can.h"
 266              		.file 32 "../../lib/e-puck2_main-processor/ChibiOS//os/hal/ports/STM32/LLD/can_lld.h"
 267              		.file 33 "../../lib/e-puck2_main-processor/ChibiOS//os/hal/include/dac.h"
 268              		.file 34 "../../lib/e-puck2_main-processor/ChibiOS//os/hal/ports/STM32/LLD/DACv1/dac_lld.h"
 269              		.file 35 "../../lib/e-puck2_main-processor/ChibiOS//os/hal/include/ext.h"
 270              		.file 36 "../../lib/e-puck2_main-processor/ChibiOS//os/hal/ports/STM32/LLD/ext_lld.h"
 271              		.file 37 "../../lib/e-puck2_main-processor/ChibiOS//os/hal/include/gpt.h"
 272              		.file 38 "../../lib/e-puck2_main-processor/ChibiOS//os/hal/ports/STM32/LLD/TIMv1/gpt_lld.h"
 273              		.file 39 "../../lib/e-puck2_main-processor/ChibiOS//os/hal/ports/STM32/LLD/TIMv1/stm32_tim.h"
 274              		.file 40 "../../lib/e-puck2_main-processor/ChibiOS//os/hal/include/i2c.h"
 275              		.file 41 "../../lib/e-puck2_main-processor/ChibiOS//os/hal/ports/STM32/LLD/I2Cv1/i2c_lld.h"
 276              		.file 42 "../../lib/e-puck2_main-processor/ChibiOS//os/hal/include/i2s.h"
 277              		.file 43 "../../lib/e-puck2_main-processor/ChibiOS//os/hal/ports/STM32/LLD/SPIv1/i2s_lld.h"
ARM GAS  C:\Users\phil4\AppData\Local\Temp\ccQeQu5e.s 			page 6


 278              		.file 44 "../../lib/e-puck2_main-processor/ChibiOS//os/hal/include/pwm.h"
 279              		.file 45 "../../lib/e-puck2_main-processor/ChibiOS//os/hal/ports/STM32/LLD/TIMv1/pwm_lld.h"
 280              		.file 46 "../../lib/e-puck2_main-processor/ChibiOS//os/hal/include/serial.h"
 281              		.file 47 "../../lib/e-puck2_main-processor/ChibiOS//os/hal/ports/STM32/LLD/USARTv1/serial_lld.h"
 282              		.file 48 "../../lib/e-puck2_main-processor/ChibiOS//os/hal/include/sdc.h"
 283              		.file 49 "../../lib/e-puck2_main-processor/ChibiOS//os/hal/ports/STM32/LLD/sdc_lld.h"
 284              		.file 50 "../../lib/e-puck2_main-processor/ChibiOS//os/hal/include/spi.h"
 285              		.file 51 "../../lib/e-puck2_main-processor/ChibiOS//os/hal/ports/STM32/LLD/SPIv1/spi_lld.h"
 286              		.file 52 "../../lib/e-puck2_main-processor/ChibiOS//os/hal/include/usb.h"
 287              		.file 53 "../../lib/e-puck2_main-processor/ChibiOS//os/hal/ports/STM32/LLD/OTGv1/usb_lld.h"
 288              		.file 54 "../../lib/e-puck2_main-processor/ChibiOS//os/hal/ports/STM32/LLD/OTGv1/stm32_otg.h"
 289              		.file 55 "../../lib/e-puck2_main-processor/ChibiOS//os/hal/include/serial_usb.h"
 290              		.file 56 "../../lib/e-puck2_main-processor/src/usbcfg.h"
 291              		.file 57 "../../lib/e-puck2_main-processor/ChibiOS_ext/os/hal/include/../ports/STM32/STM32F4xx/dcm
 292              		.file 58 "c:\\users\\phil4\\onedrive\\bureau\\microinformatique_tp\\eclipse_e-puck2_win32_29_jan_2
 293              		.file 59 "../../lib/e-puck2_main-processor/src/msgbus/messagebus.h"
 294              		.file 60 "../../lib/e-puck2_main-processor/src/parameter/parameter.h"
 295              		.file 61 "./main.h"
 296              		.file 62 "./audio_processing.h"
 297              		.file 63 "./fft.h"
 298              		.file 64 "c:\\users\\phil4\\onedrive\\bureau\\microinformatique_tp\\eclipse_e-puck2_win32_29_jan_2
 299              		.file 65 "../../lib/e-puck2_main-processor/ChibiOS//os/rt/include/chsys.h"
 300              		.file 66 "leds.h"
 301              		.file 67 "../../lib/e-puck2_main-processor/ChibiOS//os/ext/CMSIS/include/arm_math.h"
 302              		.file 68 "./communications.h"
 303              		.file 69 "../../lib/e-puck2_main-processor/ChibiOS//os/hal/include/hal.h"
 304              		.file 70 "../../lib/e-puck2_main-processor/src/memory_protection.h"
 305              		.file 71 "../../lib/e-puck2_main-processor/src/motors.h"
 306              		.file 72 "../../lib/e-puck2_main-processor/src/audio/microphone.h"